target datalayout = "e-m:e-p270:32:32-p271:32:32-p272:64:64-i64:64-i128:128-f80:128-n8:16:32:64-S128"
target triple = "x86_64-pc-linux-gnu"

%struct.ossl_param_st = type { ptr, i32, ptr, i64, i64 }
%struct.TEST_DERIVEKEY_DATA = type { ptr, ptr, i64, ptr, i64, ptr, i64 }

@libctx = internal global ptr null, align 8
@.str.3 = private unnamed_addr constant [38 x i8] c"../openssl/test/evp_pkey_dhkem_test.c\00", align 1
@.str.5 = private unnamed_addr constant [3 x i8] c"EC\00", align 1
@.str.6 = private unnamed_addr constant [6 x i8] c"P-256\00", align 1
@.str.43 = private unnamed_addr constant [6 x i8] c"group\00", align 1
@.str.50 = private unnamed_addr constant [2 x i8] c"1\00", align 1
@.str.74 = private unnamed_addr constant [2 x i8] c"0\00", align 1
@.str.103 = private unnamed_addr constant [10 x i8] c"dhkem-ikm\00", align 1
@.str.104 = private unnamed_addr constant [56 x i8] c"genctx = EVP_PKEY_CTX_new_from_name(libctx, \22EC\22, NULL)\00", align 1
@.str.105 = private unnamed_addr constant [29 x i8] c"EVP_PKEY_keygen_init(genctx)\00", align 1
@.str.106 = private unnamed_addr constant [40 x i8] c"EVP_PKEY_CTX_set_params(genctx, params)\00", align 1
@.str.107 = private unnamed_addr constant [33 x i8] c"EVP_PKEY_generate(genctx, &pkey)\00", align 1
@.str.137 = private unnamed_addr constant [10 x i8] c"secp256k1\00", align 1
@.str.138 = private unnamed_addr constant [6 x i8] c"P-224\00", align 1

; Function Attrs: nounwind uwtable
define internal i32 @test_ec_dhkem_derivekey_fail() #0 {
  %1 = alloca i32, align 4
  %2 = alloca ptr, align 8
  %3 = alloca [3 x %struct.ossl_param_st], align 16
  %4 = alloca ptr, align 8
  %5 = alloca ptr, align 8
  %6 = alloca ptr, align 8
  %7 = alloca %struct.ossl_param_st, align 8
  %8 = alloca %struct.ossl_param_st, align 8
  %9 = alloca %struct.ossl_param_st, align 8
  %10 = alloca %struct.ossl_param_st, align 8
  %11 = alloca %struct.ossl_param_st, align 8
  %12 = alloca %struct.ossl_param_st, align 8
  %13 = alloca %struct.ossl_param_st, align 8
  %14 = alloca %struct.ossl_param_st, align 8
  %15 = alloca %struct.ossl_param_st, align 8
  call void @llvm.lifetime.start.p0(i64 4, ptr %1) #6
  store i32 0, ptr %1, align 4, !tbaa !10
  call void @llvm.lifetime.start.p0(i64 8, ptr %2) #6
  store ptr null, ptr %2, align 8, !tbaa !17
  call void @llvm.lifetime.start.p0(i64 120, ptr %3) #6
  call void @llvm.lifetime.start.p0(i64 8, ptr %4) #6
  store ptr null, ptr %4, align 8, !tbaa !19
  call void @llvm.lifetime.start.p0(i64 8, ptr %5) #6
  store ptr @ec_derivekey_data, ptr %5, align 8, !tbaa !12
  call void @llvm.lifetime.start.p0(i64 8, ptr %6) #6
  store ptr null, ptr %6, align 8, !tbaa !37
  %16 = getelementptr inbounds [3 x %struct.ossl_param_st], ptr %3, i64 0, i64 0
  call void @llvm.lifetime.start.p0(i64 40, ptr %7) #6
  call void @OSSL_PARAM_construct_utf8_string(ptr dead_on_unwind writable sret(%struct.ossl_param_st) align 8 %7, ptr noundef @.str.43, ptr noundef @.str.137, i64 noundef 0)
  call void @llvm.memcpy.p0.p0.i64(ptr align 16 %16, ptr align 8 %7, i64 40, i1 false), !tbaa.struct !9
  call void @llvm.lifetime.end.p0(i64 40, ptr %7) #6
  %17 = getelementptr inbounds [3 x %struct.ossl_param_st], ptr %3, i64 0, i64 1
  call void @llvm.lifetime.start.p0(i64 40, ptr %8) #6
  %18 = load ptr, ptr %5, align 8, !tbaa !12
  %19 = getelementptr inbounds nuw %struct.TEST_DERIVEKEY_DATA, ptr %18, i32 0, i32 1
  %20 = load ptr, ptr %19, align 8, !tbaa !41
  %21 = load ptr, ptr %5, align 8, !tbaa !12
  %22 = getelementptr inbounds nuw %struct.TEST_DERIVEKEY_DATA, ptr %21, i32 0, i32 2
  %23 = load i64, ptr %22, align 8, !tbaa !42
  call void @OSSL_PARAM_construct_octet_string(ptr dead_on_unwind writable sret(%struct.ossl_param_st) align 8 %8, ptr noundef @.str.103, ptr noundef %20, i64 noundef %23)
  call void @llvm.memcpy.p0.p0.i64(ptr align 8 %17, ptr align 8 %8, i64 40, i1 false), !tbaa.struct !9
  call void @llvm.lifetime.end.p0(i64 40, ptr %8) #6
  %24 = getelementptr inbounds [3 x %struct.ossl_param_st], ptr %3, i64 0, i64 2
  call void @llvm.lifetime.start.p0(i64 40, ptr %9) #6
  call void @OSSL_PARAM_construct_end(ptr dead_on_unwind writable sret(%struct.ossl_param_st) align 8 %9)
  call void @llvm.memcpy.p0.p0.i64(ptr align 16 %24, ptr align 8 %9, i64 40, i1 false), !tbaa.struct !9
  call void @llvm.lifetime.end.p0(i64 40, ptr %9) #6
  %25 = load ptr, ptr @libctx, align 8, !tbaa !15
  %26 = call ptr @EVP_PKEY_CTX_new_from_name(ptr noundef %25, ptr noundef @.str.5, ptr noundef null)
  store ptr %26, ptr %4, align 8, !tbaa !19
  %27 = call i32 @test_ptr(ptr noundef @.str.3, i32 noundef 132, ptr noundef @.str.104, ptr noundef %26)
  %28 = icmp ne i32 %27, 0
  br i1 %28, label %29, label %45

29:                                               ; preds = %0
  %30 = load ptr, ptr %4, align 8, !tbaa !19
  %31 = call i32 @EVP_PKEY_keygen_init(ptr noundef %30)
  %32 = call i32 @test_int_eq(ptr noundef @.str.3, i32 noundef 133, ptr noundef @.str.105, ptr noundef @.str.50, i32 noundef %31, i32 noundef 1)
  %33 = icmp ne i32 %32, 0
  br i1 %33, label %34, label %45

34:                                               ; preds = %29
  %35 = load ptr, ptr %4, align 8, !tbaa !19
  %36 = getelementptr inbounds [3 x %struct.ossl_param_st], ptr %3, i64 0, i64 0
  %37 = call i32 @EVP_PKEY_CTX_set_params(ptr noundef %35, ptr noundef %36)
  %38 = call i32 @test_int_eq(ptr noundef @.str.3, i32 noundef 134, ptr noundef @.str.106, ptr noundef @.str.50, i32 noundef %37, i32 noundef 1)
  %39 = icmp ne i32 %38, 0
  br i1 %39, label %40, label %45

40:                                               ; preds = %34
  %41 = load ptr, ptr %4, align 8, !tbaa !19
  %42 = call i32 @EVP_PKEY_generate(ptr noundef %41, ptr noundef %2)
  %43 = call i32 @test_int_eq(ptr noundef @.str.3, i32 noundef 135, ptr noundef @.str.107, ptr noundef @.str.74, i32 noundef %42, i32 noundef 0)
  %44 = icmp ne i32 %43, 0
  br i1 %44, label %46, label %45

45:                                               ; preds = %40, %34, %29, %0
  br label %95

46:                                               ; preds = %40
  %47 = getelementptr inbounds [3 x %struct.ossl_param_st], ptr %3, i64 0, i64 0
  call void @llvm.lifetime.start.p0(i64 40, ptr %10) #6
  call void @OSSL_PARAM_construct_utf8_string(ptr dead_on_unwind writable sret(%struct.ossl_param_st) align 8 %10, ptr noundef @.str.43, ptr noundef @.str.138, i64 noundef 0)
  call void @llvm.memcpy.p0.p0.i64(ptr align 16 %47, ptr align 8 %10, i64 40, i1 false), !tbaa.struct !9
  call void @llvm.lifetime.end.p0(i64 40, ptr %10) #6
  %48 = getelementptr inbounds [3 x %struct.ossl_param_st], ptr %3, i64 0, i64 1
  call void @llvm.lifetime.start.p0(i64 40, ptr %11) #6
  %49 = load ptr, ptr %5, align 8, !tbaa !12
  %50 = getelementptr inbounds nuw %struct.TEST_DERIVEKEY_DATA, ptr %49, i32 0, i32 1
  %51 = load ptr, ptr %50, align 8, !tbaa !41
  %52 = load ptr, ptr %5, align 8, !tbaa !12
  %53 = getelementptr inbounds nuw %struct.TEST_DERIVEKEY_DATA, ptr %52, i32 0, i32 2
  %54 = load i64, ptr %53, align 8, !tbaa !42
  call void @OSSL_PARAM_construct_octet_string(ptr dead_on_unwind writable sret(%struct.ossl_param_st) align 8 %11, ptr noundef @.str.103, ptr noundef %51, i64 noundef %54)
  call void @llvm.memcpy.p0.p0.i64(ptr align 8 %48, ptr align 8 %11, i64 40, i1 false), !tbaa.struct !9
  call void @llvm.lifetime.end.p0(i64 40, ptr %11) #6
  %55 = getelementptr inbounds [3 x %struct.ossl_param_st], ptr %3, i64 0, i64 2
  call void @llvm.lifetime.start.p0(i64 40, ptr %12) #6
  call void @OSSL_PARAM_construct_end(ptr dead_on_unwind writable sret(%struct.ossl_param_st) align 8 %12)
  call void @llvm.memcpy.p0.p0.i64(ptr align 16 %55, ptr align 8 %12, i64 40, i1 false), !tbaa.struct !9
  call void @llvm.lifetime.end.p0(i64 40, ptr %12) #6
  %56 = load ptr, ptr %4, align 8, !tbaa !19
  %57 = call i32 @EVP_PKEY_keygen_init(ptr noundef %56)
  %58 = call i32 @test_int_eq(ptr noundef @.str.3, i32 noundef 144, ptr noundef @.str.105, ptr noundef @.str.50, i32 noundef %57, i32 noundef 1)
  %59 = icmp ne i32 %58, 0
  br i1 %59, label %60, label %71

60:                                               ; preds = %46
  %61 = load ptr, ptr %4, align 8, !tbaa !19
  %62 = getelementptr inbounds [3 x %struct.ossl_param_st], ptr %3, i64 0, i64 0
  %63 = call i32 @EVP_PKEY_CTX_set_params(ptr noundef %61, ptr noundef %62)
  %64 = call i32 @test_int_eq(ptr noundef @.str.3, i32 noundef 145, ptr noundef @.str.106, ptr noundef @.str.50, i32 noundef %63, i32 noundef 1)
  %65 = icmp ne i32 %64, 0
  br i1 %65, label %66, label %71

66:                                               ; preds = %60
  %67 = load ptr, ptr %4, align 8, !tbaa !19
  %68 = call i32 @EVP_PKEY_generate(ptr noundef %67, ptr noundef %2)
  %69 = call i32 @test_int_eq(ptr noundef @.str.3, i32 noundef 146, ptr noundef @.str.107, ptr noundef @.str.74, i32 noundef %68, i32 noundef 0)
  %70 = icmp ne i32 %69, 0
  br i1 %70, label %72, label %71

71:                                               ; preds = %66, %60, %46
  br label %95

72:                                               ; preds = %66
  %73 = getelementptr inbounds [3 x %struct.ossl_param_st], ptr %3, i64 0, i64 0
  call void @llvm.lifetime.start.p0(i64 40, ptr %13) #6
  call void @OSSL_PARAM_construct_utf8_string(ptr dead_on_unwind writable sret(%struct.ossl_param_st) align 8 %13, ptr noundef @.str.43, ptr noundef @.str.6, i64 noundef 0)
  call void @llvm.memcpy.p0.p0.i64(ptr align 16 %73, ptr align 8 %13, i64 40, i1 false), !tbaa.struct !9
  call void @llvm.lifetime.end.p0(i64 40, ptr %13) #6
  %74 = getelementptr inbounds [3 x %struct.ossl_param_st], ptr %3, i64 0, i64 1
  call void @llvm.lifetime.start.p0(i64 40, ptr %14) #6
  %75 = load ptr, ptr %5, align 8, !tbaa !12
  %76 = getelementptr inbounds nuw %struct.TEST_DERIVEKEY_DATA, ptr %75, i32 0, i32 1
  %77 = load ptr, ptr %76, align 8, !tbaa !41
  %78 = load ptr, ptr %5, align 8, !tbaa !12
  %79 = getelementptr inbounds nuw %struct.TEST_DERIVEKEY_DATA, ptr %78, i32 0, i32 2
  %80 = load i64, ptr %79, align 8, !tbaa !42
  %81 = sub i64 %80, 1
  call void @OSSL_PARAM_construct_octet_string(ptr dead_on_unwind writable sret(%struct.ossl_param_st) align 8 %14, ptr noundef @.str.103, ptr noundef %77, i64 noundef %81)
  call void @llvm.memcpy.p0.p0.i64(ptr align 8 %74, ptr align 8 %14, i64 40, i1 false), !tbaa.struct !9
  call void @llvm.lifetime.end.p0(i64 40, ptr %14) #6
  %82 = getelementptr inbounds [3 x %struct.ossl_param_st], ptr %3, i64 0, i64 2
  call void @llvm.lifetime.start.p0(i64 40, ptr %15) #6
  call void @OSSL_PARAM_construct_end(ptr dead_on_unwind writable sret(%struct.ossl_param_st) align 8 %15)
  call void @llvm.memcpy.p0.p0.i64(ptr align 16 %82, ptr align 8 %15, i64 40, i1 false), !tbaa.struct !9
  call void @llvm.lifetime.end.p0(i64 40, ptr %15) #6
  %83 = load ptr, ptr %4, align 8, !tbaa !19
  %84 = getelementptr inbounds [3 x %struct.ossl_param_st], ptr %3, i64 0, i64 0
  %85 = call i32 @EVP_PKEY_CTX_set_params(ptr noundef %83, ptr noundef %84)
  %86 = call i32 @test_int_eq(ptr noundef @.str.3, i32 noundef 155, ptr noundef @.str.106, ptr noundef @.str.50, i32 noundef %85, i32 noundef 1)
  %87 = icmp ne i32 %86, 0
  br i1 %87, label %88, label %93

88:                                               ; preds = %72
  %89 = load ptr, ptr %4, align 8, !tbaa !19
  %90 = call i32 @EVP_PKEY_generate(ptr noundef %89, ptr noundef %2)
  %91 = call i32 @test_int_eq(ptr noundef @.str.3, i32 noundef 156, ptr noundef @.str.107, ptr noundef @.str.74, i32 noundef %90, i32 noundef 0)
  %92 = icmp ne i32 %91, 0
  br i1 %92, label %94, label %93

93:                                               ; preds = %88, %72
  br label %95

94:                                               ; preds = %88
  store i32 1, ptr %1, align 4, !tbaa !10
  br label %95

95:                                               ; preds = %94, %93, %71, %45
  %96 = load ptr, ptr %6, align 8, !tbaa !37
  call void @BN_free(ptr noundef %96)
  %97 = load ptr, ptr %2, align 8, !tbaa !17
  call void @EVP_PKEY_free(ptr noundef %97)
  %98 = load ptr, ptr %4, align 8, !tbaa !19
  call void @EVP_PKEY_CTX_free(ptr noundef %98)
  %99 = load i32, ptr %1, align 4, !tbaa !10
  call void @llvm.lifetime.end.p0(i64 8, ptr %6) #6
  call void @llvm.lifetime.end.p0(i64 8, ptr %5) #6
  call void @llvm.lifetime.end.p0(i64 8, ptr %4) #6
  call void @llvm.lifetime.end.p0(i64 120, ptr %3) #6
  call void @llvm.lifetime.end.p0(i64 8, ptr %2) #6
  call void @llvm.lifetime.end.p0(i64 4, ptr %1) #6
  ret i32 %99
}