; Function Attrs: nounwind uwtable
define internal range(i32 0, 2) i32 @test_ec_dhkem_derivekey_fail() #0 {
  %1 = alloca ptr, align 8
  %2 = alloca [3 x %struct.ossl_param_st], align 16
  %3 = alloca %struct.ossl_param_st, align 8
  %4 = alloca %struct.ossl_param_st, align 8
  %5 = alloca %struct.ossl_param_st, align 8
  %6 = alloca %struct.ossl_param_st, align 8
  %7 = alloca %struct.ossl_param_st, align 8
  %8 = alloca %struct.ossl_param_st, align 8
  %9 = alloca %struct.ossl_param_st, align 8
  %10 = alloca %struct.ossl_param_st, align 8
  call void @llvm.lifetime.start.p0(i64 8, ptr nonnull %1) #5
  store ptr null, ptr %1, align 8, !tbaa !17
  call void @llvm.lifetime.start.p0(i64 120, ptr nonnull %2) #5
  call void @OSSL_PARAM_construct_utf8_string(ptr dead_on_unwind nonnull writable sret(%struct.ossl_param_st) align 8 %2, ptr noundef nonnull @.str.43, ptr noundef nonnull @.str.137, i64 noundef 0) #5
  %11 = getelementptr inbounds nuw i8, ptr %2, i64 40
  call void @llvm.lifetime.start.p0(i64 40, ptr nonnull %3) #5
  call void @OSSL_PARAM_construct_octet_string(ptr dead_on_unwind nonnull writable sret(%struct.ossl_param_st) align 8 %3, ptr noundef nonnull @.str.103, ptr noundef nonnull @p256_ikme, i64 noundef 32) #5
  call void @llvm.memcpy.p0.p0.i64(ptr noundef nonnull align 8 dereferenceable(40) %11, ptr noundef nonnull align 8 dereferenceable(40) %3, i64 40, i1 false), !tbaa.struct !4
  call void @llvm.lifetime.end.p0(i64 40, ptr nonnull %3) #5
  %12 = getelementptr inbounds nuw i8, ptr %2, i64 80
  call void @llvm.lifetime.start.p0(i64 40, ptr nonnull %4) #5
  call void @OSSL_PARAM_construct_end(ptr dead_on_unwind nonnull writable sret(%struct.ossl_param_st) align 8 %4) #5
  call void @llvm.memcpy.p0.p0.i64(ptr noundef nonnull align 16 dereferenceable(40) %12, ptr noundef nonnull align 8 dereferenceable(40) %4, i64 40, i1 false), !tbaa.struct !4
  call void @llvm.lifetime.end.p0(i64 40, ptr nonnull %4) #5
  %13 = load ptr, ptr @libctx, align 8, !tbaa !15
  %14 = call ptr @EVP_PKEY_CTX_new_from_name(ptr noundef %13, ptr noundef nonnull @.str.5, ptr noundef null) #5
  %15 = call i32 @test_ptr(ptr noundef nonnull @.str.3, i32 noundef 132, ptr noundef nonnull @.str.104, ptr noundef %14) #5
  %.not = icmp eq i32 %15, 0
  br i1 %.not, label %40, label %16

16:                                               ; preds = %0
  %17 = call i32 @EVP_PKEY_keygen_init(ptr noundef %14) #5
  %18 = call i32 @test_int_eq(ptr noundef nonnull @.str.3, i32 noundef 133, ptr noundef nonnull @.str.105, ptr noundef nonnull @.str.50, i32 noundef %17, i32 noundef 1) #5
  %.not16 = icmp eq i32 %18, 0
  br i1 %.not16, label %40, label %19

19:                                               ; preds = %16
  %20 = call i32 @EVP_PKEY_CTX_set_params(ptr noundef %14, ptr noundef nonnull %2) #5
  %21 = call i32 @test_int_eq(ptr noundef nonnull @.str.3, i32 noundef 134, ptr noundef nonnull @.str.106, ptr noundef nonnull @.str.50, i32 noundef %20, i32 noundef 1) #5
  %.not17 = icmp eq i32 %21, 0
  br i1 %.not17, label %40, label %22

22:                                               ; preds = %19
  %23 = call i32 @EVP_PKEY_generate(ptr noundef %14, ptr noundef nonnull %1) #5
  %24 = call i32 @test_int_eq(ptr noundef nonnull @.str.3, i32 noundef 135, ptr noundef nonnull @.str.107, ptr noundef nonnull @.str.74, i32 noundef %23, i32 noundef 0) #5
  %.not18 = icmp eq i32 %24, 0
  br i1 %.not18, label %40, label %25

25:                                               ; preds = %22
  call void @llvm.lifetime.start.p0(i64 40, ptr nonnull %5) #5
  call void @OSSL_PARAM_construct_utf8_string(ptr dead_on_unwind nonnull writable sret(%struct.ossl_param_st) align 8 %5, ptr noundef nonnull @.str.43, ptr noundef nonnull @.str.138, i64 noundef 0) #5
  call void @llvm.memcpy.p0.p0.i64(ptr noundef nonnull align 16 dereferenceable(40) %2, ptr noundef nonnull align 8 dereferenceable(40) %5, i64 40, i1 false), !tbaa.struct !4
  call void @llvm.lifetime.end.p0(i64 40, ptr nonnull %5) #5
  call void @llvm.lifetime.start.p0(i64 40, ptr nonnull %6) #5
  call void @OSSL_PARAM_construct_octet_string(ptr dead_on_unwind nonnull writable sret(%struct.ossl_param_st) align 8 %6, ptr noundef nonnull @.str.103, ptr noundef nonnull @p256_ikme, i64 noundef 32) #5
  call void @llvm.memcpy.p0.p0.i64(ptr noundef nonnull align 8 dereferenceable(40) %11, ptr noundef nonnull align 8 dereferenceable(40) %6, i64 40, i1 false), !tbaa.struct !4
  call void @llvm.lifetime.end.p0(i64 40, ptr nonnull %6) #5
  call void @llvm.lifetime.start.p0(i64 40, ptr nonnull %7) #5
  call void @OSSL_PARAM_construct_end(ptr dead_on_unwind nonnull writable sret(%struct.ossl_param_st) align 8 %7) #5
  call void @llvm.memcpy.p0.p0.i64(ptr noundef nonnull align 16 dereferenceable(40) %12, ptr noundef nonnull align 8 dereferenceable(40) %7, i64 40, i1 false), !tbaa.struct !4
  call void @llvm.lifetime.end.p0(i64 40, ptr nonnull %7) #5
  %26 = call i32 @EVP_PKEY_keygen_init(ptr noundef %14) #5
  %27 = call i32 @test_int_eq(ptr noundef nonnull @.str.3, i32 noundef 144, ptr noundef nonnull @.str.105, ptr noundef nonnull @.str.50, i32 noundef %26, i32 noundef 1) #5
  %.not19 = icmp eq i32 %27, 0
  br i1 %.not19, label %40, label %28

28:                                               ; preds = %25
  %29 = call i32 @EVP_PKEY_CTX_set_params(ptr noundef %14, ptr noundef nonnull %2) #5
  %30 = call i32 @test_int_eq(ptr noundef nonnull @.str.3, i32 noundef 145, ptr noundef nonnull @.str.106, ptr noundef nonnull @.str.50, i32 noundef %29, i32 noundef 1) #5
  %.not20 = icmp eq i32 %30, 0
  br i1 %.not20, label %40, label %31

31:                                               ; preds = %28
  %32 = call i32 @EVP_PKEY_generate(ptr noundef %14, ptr noundef nonnull %1) #5
  %33 = call i32 @test_int_eq(ptr noundef nonnull @.str.3, i32 noundef 146, ptr noundef nonnull @.str.107, ptr noundef nonnull @.str.74, i32 noundef %32, i32 noundef 0) #5
  %.not21 = icmp eq i32 %33, 0
  br i1 %.not21, label %40, label %34

34:                                               ; preds = %31
  call void @llvm.lifetime.start.p0(i64 40, ptr nonnull %8) #5
  call void @OSSL_PARAM_construct_utf8_string(ptr dead_on_unwind nonnull writable sret(%struct.ossl_param_st) align 8 %8, ptr noundef nonnull @.str.43, ptr noundef nonnull @.str.6, i64 noundef 0) #5
  call void @llvm.memcpy.p0.p0.i64(ptr noundef nonnull align 16 dereferenceable(40) %2, ptr noundef nonnull align 8 dereferenceable(40) %8, i64 40, i1 false), !tbaa.struct !4
  call void @llvm.lifetime.end.p0(i64 40, ptr nonnull %8) #5
  call void @llvm.lifetime.start.p0(i64 40, ptr nonnull %9) #5
  call void @OSSL_PARAM_construct_octet_string(ptr dead_on_unwind nonnull writable sret(%struct.ossl_param_st) align 8 %9, ptr noundef nonnull @.str.103, ptr noundef nonnull @p256_ikme, i64 noundef 31) #5
  call void @llvm.memcpy.p0.p0.i64(ptr noundef nonnull align 8 dereferenceable(40) %11, ptr noundef nonnull align 8 dereferenceable(40) %9, i64 40, i1 false), !tbaa.struct !4
  call void @llvm.lifetime.end.p0(i64 40, ptr nonnull %9) #5
  call void @llvm.lifetime.start.p0(i64 40, ptr nonnull %10) #5
  call void @OSSL_PARAM_construct_end(ptr dead_on_unwind nonnull writable sret(%struct.ossl_param_st) align 8 %10) #5
  call void @llvm.memcpy.p0.p0.i64(ptr noundef nonnull align 16 dereferenceable(40) %12, ptr noundef nonnull align 8 dereferenceable(40) %10, i64 40, i1 false), !tbaa.struct !4
  call void @llvm.lifetime.end.p0(i64 40, ptr nonnull %10) #5
  %35 = call i32 @EVP_PKEY_CTX_set_params(ptr noundef %14, ptr noundef nonnull %2) #5
  %36 = call i32 @test_int_eq(ptr noundef nonnull @.str.3, i32 noundef 155, ptr noundef nonnull @.str.106, ptr noundef nonnull @.str.50, i32 noundef %35, i32 noundef 1) #5
  %.not22 = icmp eq i32 %36, 0
  br i1 %.not22, label %40, label %37

37:                                               ; preds = %34
  %38 = call i32 @EVP_PKEY_generate(ptr noundef %14, ptr noundef nonnull %1) #5
  %39 = call i32 @test_int_eq(ptr noundef nonnull @.str.3, i32 noundef 156, ptr noundef nonnull @.str.107, ptr noundef nonnull @.str.74, i32 noundef %38, i32 noundef 0) #5
  %.not23 = icmp ne i32 %39, 0
  %spec.select = zext i1 %.not23 to i32
  br label %40

40:                                               ; preds = %37, %34, %25, %28, %31, %0, %16, %19, %22
  %.0 = phi i32 [ 0, %34 ], [ 0, %31 ], [ 0, %28 ], [ 0, %25 ], [ 0, %22 ], [ 0, %19 ], [ 0, %16 ], [ 0, %0 ], [ %spec.select, %37 ]
  call void @BN_free(ptr noundef null) #5
  %41 = load ptr, ptr %1, align 8, !tbaa !17
  call void @EVP_PKEY_free(ptr noundef %41) #5
  call void @EVP_PKEY_CTX_free(ptr noundef %14) #5
  call void @llvm.lifetime.end.p0(i64 120, ptr nonnull %2) #5
  call void @llvm.lifetime.end.p0(i64 8, ptr nonnull %1) #5
  ret i32 %.0
}